; Function Attrs: mustprogress uwtable
define void @_Z13done_top_mtopP10t_topologyP10gmx_mtop_t(ptr noundef %0, ptr noundef %1) local_unnamed_addr #3 {
  %3 = icmp ne ptr %1, null
  %4 = icmp ne ptr %0, null
  %or.cond = and i1 %4, %3
  br i1 %or.cond, label %5, label %11

5:                                                ; preds = %2
  %6 = getelementptr inbounds nuw i8, ptr %0, i64 8
  tail call void @_Z9done_idefP6t_idef(ptr noundef nonnull %6)
  %7 = getelementptr inbounds nuw i8, ptr %0, i64 2344
  tail call void @_Z9done_atomP7t_atoms(ptr noundef nonnull %7)
  %8 = getelementptr inbounds nuw i8, ptr %0, i64 2416
  tail call void @_Z10done_blockP7t_block(ptr noundef nonnull %8)
  %9 = getelementptr inbounds nuw i8, ptr %0, i64 2448
  tail call void @_Z11done_symtabP8t_symtab(ptr noundef nonnull %9)
  %10 = getelementptr inbounds nuw i8, ptr %1, i64 688
  tail call void @_Z11open_symtabP8t_symtab(ptr noundef nonnull %10)
  br label %11

11:                                               ; preds = %5, %2
  ret void
}